target datalayout = "e-m:e-p270:32:32-p271:32:32-p272:64:64-i64:64-i128:128-f80:128-n8:16:32:64-S128"
target triple = "x86_64-pc-linux-gnu"

%"class.cv::_InputOutputArray" = type { %"class.cv::_OutputArray" }
%"class.cv::_OutputArray" = type { %"class.cv::_InputArray" }
%"class.cv::_InputArray" = type { i32, ptr, %"class.cv::Size_" }
%"class.cv::Size_" = type { i32, i32 }
%"class.cv::Point_" = type { i32, i32 }

; Function Attrs: inlinehint mustprogress nounwind uwtable
define linkonce_odr hidden void @_ZN2cv5Size_IiEC2Ev(ptr noundef nonnull align 4 dereferenceable(8) %0) unnamed_addr #10 comdat align 2 {
  %2 = alloca ptr, align 8
  store ptr %0, ptr %2, align 8, !tbaa !159
  %3 = load ptr, ptr %2, align 8
  %4 = getelementptr inbounds nuw %"class.cv::Size_", ptr %3, i32 0, i32 0
  store i32 0, ptr %4, align 4, !tbaa !161
  %5 = getelementptr inbounds nuw %"class.cv::Size_", ptr %3, i32 0, i32 1
  store i32 0, ptr %5, align 4, !tbaa !162
  ret void
}

; Function Attrs: inlinehint mustprogress uwtable
define linkonce_odr hidden void @_ZN2cv11_InputArrayC2Ev(ptr noundef nonnull align 8 dereferenceable(24) %0) unnamed_addr #8 comdat align 2 {
  %2 = alloca ptr, align 8
  store ptr %0, ptr %2, align 8, !tbaa !87
  %3 = load ptr, ptr %2, align 8
  %4 = getelementptr inbounds nuw %"class.cv::_InputArray", ptr %3, i32 0, i32 2
  call void @_ZN2cv5Size_IiEC2Ev(ptr noundef nonnull align 4 dereferenceable(8) %4)
  call void @_ZN2cv11_InputArray4initEiPKv(ptr noundef nonnull align 8 dereferenceable(24) %3, i32 noundef 0, ptr noundef null)
  ret void
}

; Function Attrs: inlinehint mustprogress nounwind uwtable
define linkonce_odr hidden void @_ZN2cv11_InputArray4initEiPKv(ptr noundef nonnull align 8 dereferenceable(24) %0, i32 noundef %1, ptr noundef %2) #10 comdat align 2 {
  %4 = alloca ptr, align 8
  %5 = alloca i32, align 4
  %6 = alloca ptr, align 8
  store ptr %0, ptr %4, align 8, !tbaa !87
  store i32 %1, ptr %5, align 4, !tbaa !16
  store ptr %2, ptr %6, align 8, !tbaa !127
  %7 = load ptr, ptr %4, align 8
  %8 = load i32, ptr %5, align 4, !tbaa !16
  %9 = getelementptr inbounds nuw %"class.cv::_InputArray", ptr %7, i32 0, i32 0
  store i32 %8, ptr %9, align 8, !tbaa !155
  %10 = load ptr, ptr %6, align 8, !tbaa !127
  %11 = getelementptr inbounds nuw %"class.cv::_InputArray", ptr %7, i32 0, i32 1
  store ptr %10, ptr %11, align 8, !tbaa !158
  ret void
}

; Function Attrs: inlinehint mustprogress uwtable
define linkonce_odr hidden void @_ZN2cv12_OutputArrayC2Ev(ptr noundef nonnull align 8 dereferenceable(24) %0) unnamed_addr #8 comdat align 2 personality ptr @__gxx_personality_v0 {
  %2 = alloca ptr, align 8
  %3 = alloca ptr, align 8
  %4 = alloca i32, align 4
  store ptr %0, ptr %2, align 8, !tbaa !89
  %5 = load ptr, ptr %2, align 8
  call void @_ZN2cv11_InputArrayC2Ev(ptr noundef nonnull align 8 dereferenceable(24) %5)
  invoke void @_ZN2cv11_InputArray4initEiPKv(ptr noundef nonnull align 8 dereferenceable(24) %5, i32 noundef 33554432, ptr noundef null)
          to label %6 unwind label %7

6:                                                ; preds = %1
  ret void

7:                                                ; preds = %1
  %8 = landingpad { ptr, i32 }
          cleanup
  %9 = extractvalue { ptr, i32 } %8, 0
  store ptr %9, ptr %3, align 8
  %10 = extractvalue { ptr, i32 } %8, 1
  store i32 %10, ptr %4, align 4
  call void @_ZN2cv11_InputArrayD2Ev(ptr noundef nonnull align 8 dereferenceable(24) %5) #3
  br label %11

11:                                               ; preds = %7
  %12 = load ptr, ptr %3, align 8
  %13 = load i32, ptr %4, align 4
  %14 = insertvalue { ptr, i32 } poison, ptr %12, 0
  %15 = insertvalue { ptr, i32 } %14, i32 %13, 1
  resume { ptr, i32 } %15
}

; Function Attrs: inlinehint mustprogress nounwind uwtable
define linkonce_odr hidden void @_ZN2cv11_InputArrayD2Ev(ptr noundef nonnull align 8 dereferenceable(24) %0) unnamed_addr #10 comdat align 2 {
  %2 = alloca ptr, align 8
  store ptr %0, ptr %2, align 8, !tbaa !87
  ret void
}

; Function Attrs: inlinehint mustprogress uwtable
define linkonce_odr hidden void @_ZN2cv17_InputOutputArrayC2ERNS_3MatE(ptr noundef nonnull align 8 dereferenceable(24) %0, ptr noundef nonnull align 8 dereferenceable(96) %1) unnamed_addr #8 comdat align 2 personality ptr @__gxx_personality_v0 {
  %3 = alloca ptr, align 8
  %4 = alloca ptr, align 8
  %5 = alloca ptr, align 8
  %6 = alloca i32, align 4
  store ptr %0, ptr %3, align 8, !tbaa !24
  store ptr %1, ptr %4, align 8, !tbaa !4
  %7 = load ptr, ptr %3, align 8
  call void @_ZN2cv12_OutputArrayC2Ev(ptr noundef nonnull align 8 dereferenceable(24) %7)
  %8 = load ptr, ptr %4, align 8, !tbaa !4
  invoke void @_ZN2cv11_InputArray4initEiPKv(ptr noundef nonnull align 8 dereferenceable(24) %7, i32 noundef 50397184, ptr noundef %8)
          to label %9 unwind label %10

9:                                                ; preds = %2
  ret void

10:                                               ; preds = %2
  %11 = landingpad { ptr, i32 }
          cleanup
  %12 = extractvalue { ptr, i32 } %11, 0
  store ptr %12, ptr %5, align 8
  %13 = extractvalue { ptr, i32 } %11, 1
  store i32 %13, ptr %6, align 4
  call void @_ZN2cv11_InputArrayD2Ev(ptr noundef nonnull align 8 dereferenceable(24) %7) #3
  br label %14

14:                                               ; preds = %10
  %15 = load ptr, ptr %5, align 8
  %16 = load i32, ptr %6, align 4
  %17 = insertvalue { ptr, i32 } poison, ptr %15, 0
  %18 = insertvalue { ptr, i32 } %17, i32 %16, 1
  resume { ptr, i32 } %18
}

; Function Attrs: mustprogress uwtable
define hidden void @_Z9drawArrowN2cv3MatENS_6Point_IiEES2_NS_7Scalar_IdEEiiii(ptr noundef %0, i64 %1, i64 %2, ptr noundef %3, i32 noundef %4, i32 noundef %5, i32 noundef %6, i32 noundef %7) #7 personality ptr @__gxx_personality_v0 {
  %9 = alloca %"class.cv::Point_", align 4
  %10 = alloca %"class.cv::Point_", align 4
  %11 = alloca ptr, align 8
  %12 = alloca ptr, align 8
  %13 = alloca i32, align 4
  %14 = alloca i32, align 4
  %15 = alloca i32, align 4
  %16 = alloca i32, align 4
  %17 = alloca %"class.cv::_InputOutputArray", align 8
  %18 = alloca %"class.cv::Point_", align 4
  %19 = alloca %"class.cv::Point_", align 4
  %20 = alloca ptr, align 8
  %21 = alloca i32, align 4
  %22 = alloca double, align 8
  %23 = alloca double, align 8
  %24 = alloca %"class.cv::_InputOutputArray", align 8
  %25 = alloca %"class.cv::Point_", align 4
  %26 = alloca %"class.cv::Point_", align 4
  %27 = alloca %"class.cv::_InputOutputArray", align 8
  %28 = alloca %"class.cv::Point_", align 4
  %29 = alloca %"class.cv::Point_", align 4
  store i64 %1, ptr %9, align 4
  store i64 %2, ptr %10, align 4
  store ptr %0, ptr %11, align 8, !tbaa !4
  store ptr %3, ptr %12, align 8, !tbaa !9
  store i32 %4, ptr %13, align 4, !tbaa !16
  store i32 %5, ptr %14, align 4, !tbaa !16
  store i32 %6, ptr %15, align 4, !tbaa !16
  store i32 %7, ptr %16, align 4, !tbaa !16
  call void @llvm.lifetime.start.p0(i64 24, ptr %17) #3
  call void @_ZN2cv17_InputOutputArrayC2ERNS_3MatE(ptr noundef nonnull align 8 dereferenceable(24) %17, ptr noundef nonnull align 8 dereferenceable(96) %0)
  call void @llvm.memcpy.p0.p0.i64(ptr align 4 %18, ptr align 4 %9, i64 8, i1 false), !tbaa.struct !54
  call void @llvm.memcpy.p0.p0.i64(ptr align 4 %19, ptr align 4 %10, i64 8, i1 false), !tbaa.struct !54
  %30 = load i32, ptr %14, align 4, !tbaa !16
  %31 = load i32, ptr %15, align 4, !tbaa !16
  %32 = load i32, ptr %16, align 4, !tbaa !16
  %33 = load i64, ptr %18, align 4
  %34 = load i64, ptr %19, align 4
  invoke void @_ZN2cv4lineERKNS_17_InputOutputArrayENS_6Point_IiEES4_RKNS_7Scalar_IdEEiii(ptr noundef nonnull align 8 dereferenceable(24) %17, i64 %33, i64 %34, ptr noundef nonnull align 8 dereferenceable(32) %3, i32 noundef %30, i32 noundef %31, i32 noundef %32)
          to label %35 unwind label %107

35:                                               ; preds = %8
  call void @_ZN2cv11_InputArrayD2Ev(ptr noundef nonnull align 8 dereferenceable(24) %17) #3
  call void @llvm.lifetime.end.p0(i64 24, ptr %17) #3
  call void @llvm.lifetime.start.p0(i64 8, ptr %22) #3
  store double 0x400921FB54442D18, ptr %22, align 8, !tbaa !31
  call void @llvm.lifetime.start.p0(i64 8, ptr %23) #3
  %36 = getelementptr inbounds nuw %"class.cv::Point_", ptr %9, i32 0, i32 1
  %37 = load i32, ptr %36, align 4, !tbaa !30
  %38 = sitofp i32 %37 to double
  %39 = getelementptr inbounds nuw %"class.cv::Point_", ptr %10, i32 0, i32 1
  %40 = load i32, ptr %39, align 4, !tbaa !30
  %41 = sitofp i32 %40 to double
  %42 = fsub double %38, %41
  %43 = getelementptr inbounds nuw %"class.cv::Point_", ptr %9, i32 0, i32 0
  %44 = load i32, ptr %43, align 4, !tbaa !28
  %45 = sitofp i32 %44 to double
  %46 = getelementptr inbounds nuw %"class.cv::Point_", ptr %10, i32 0, i32 0
  %47 = load i32, ptr %46, align 4, !tbaa !28
  %48 = sitofp i32 %47 to double
  %49 = fsub double %45, %48
  %50 = call double @atan2(double noundef %42, double noundef %49) #3, !tbaa !16
  store double %50, ptr %23, align 8, !tbaa !31
  %51 = getelementptr inbounds nuw %"class.cv::Point_", ptr %10, i32 0, i32 0
  %52 = load i32, ptr %51, align 4, !tbaa !28
  %53 = sitofp i32 %52 to double
  %54 = load i32, ptr %13, align 4, !tbaa !16
  %55 = sitofp i32 %54 to double
  %56 = load double, ptr %23, align 8, !tbaa !31
  %57 = fadd double %56, 0x3FE921FB54442D18
  %58 = call double @cos(double noundef %57) #3, !tbaa !16
  %59 = call double @llvm.fmuladd.f64(double %55, double %58, double %53)
  %60 = fptosi double %59 to i32
  %61 = getelementptr inbounds nuw %"class.cv::Point_", ptr %9, i32 0, i32 0
  store i32 %60, ptr %61, align 4, !tbaa !28
  %62 = getelementptr inbounds nuw %"class.cv::Point_", ptr %10, i32 0, i32 1
  %63 = load i32, ptr %62, align 4, !tbaa !30
  %64 = sitofp i32 %63 to double
  %65 = load i32, ptr %13, align 4, !tbaa !16
  %66 = sitofp i32 %65 to double
  %67 = load double, ptr %23, align 8, !tbaa !31
  %68 = fadd double %67, 0x3FE921FB54442D18
  %69 = call double @sin(double noundef %68) #3, !tbaa !16
  %70 = call double @llvm.fmuladd.f64(double %66, double %69, double %64)
  %71 = fptosi double %70 to i32
  %72 = getelementptr inbounds nuw %"class.cv::Point_", ptr %9, i32 0, i32 1
  store i32 %71, ptr %72, align 4, !tbaa !30
  call void @llvm.lifetime.start.p0(i64 24, ptr %24) #3
  call void @_ZN2cv17_InputOutputArrayC2ERNS_3MatE(ptr noundef nonnull align 8 dereferenceable(24) %24, ptr noundef nonnull align 8 dereferenceable(96) %0)
  call void @llvm.memcpy.p0.p0.i64(ptr align 4 %25, ptr align 4 %9, i64 8, i1 false), !tbaa.struct !54
  call void @llvm.memcpy.p0.p0.i64(ptr align 4 %26, ptr align 4 %10, i64 8, i1 false), !tbaa.struct !54
  %73 = load i32, ptr %14, align 4, !tbaa !16
  %74 = load i32, ptr %15, align 4, !tbaa !16
  %75 = load i32, ptr %16, align 4, !tbaa !16
  %76 = load i64, ptr %25, align 4
  %77 = load i64, ptr %26, align 4
  invoke void @_ZN2cv4lineERKNS_17_InputOutputArrayENS_6Point_IiEES4_RKNS_7Scalar_IdEEiii(ptr noundef nonnull align 8 dereferenceable(24) %24, i64 %76, i64 %77, ptr noundef nonnull align 8 dereferenceable(32) %3, i32 noundef %73, i32 noundef %74, i32 noundef %75)
          to label %78 unwind label %111

78:                                               ; preds = %35
  call void @_ZN2cv11_InputArrayD2Ev(ptr noundef nonnull align 8 dereferenceable(24) %24) #3
  call void @llvm.lifetime.end.p0(i64 24, ptr %24) #3
  %79 = getelementptr inbounds nuw %"class.cv::Point_", ptr %10, i32 0, i32 0
  %80 = load i32, ptr %79, align 4, !tbaa !28
  %81 = sitofp i32 %80 to double
  %82 = load i32, ptr %13, align 4, !tbaa !16
  %83 = sitofp i32 %82 to double
  %84 = load double, ptr %23, align 8, !tbaa !31
  %85 = fsub double %84, 0x3FE921FB54442D18
  %86 = call double @cos(double noundef %85) #3, !tbaa !16
  %87 = call double @llvm.fmuladd.f64(double %83, double %86, double %81)
  %88 = fptosi double %87 to i32
  %89 = getelementptr inbounds nuw %"class.cv::Point_", ptr %9, i32 0, i32 0
  store i32 %88, ptr %89, align 4, !tbaa !28
  %90 = getelementptr inbounds nuw %"class.cv::Point_", ptr %10, i32 0, i32 1
  %91 = load i32, ptr %90, align 4, !tbaa !30
  %92 = sitofp i32 %91 to double
  %93 = load i32, ptr %13, align 4, !tbaa !16
  %94 = sitofp i32 %93 to double
  %95 = load double, ptr %23, align 8, !tbaa !31
  %96 = fsub double %95, 0x3FE921FB54442D18
  %97 = call double @sin(double noundef %96) #3, !tbaa !16
  %98 = call double @llvm.fmuladd.f64(double %94, double %97, double %92)
  %99 = fptosi double %98 to i32
  %100 = getelementptr inbounds nuw %"class.cv::Point_", ptr %9, i32 0, i32 1
  store i32 %99, ptr %100, align 4, !tbaa !30
  call void @llvm.lifetime.start.p0(i64 24, ptr %27) #3
  call void @_ZN2cv17_InputOutputArrayC2ERNS_3MatE(ptr noundef nonnull align 8 dereferenceable(24) %27, ptr noundef nonnull align 8 dereferenceable(96) %0)
  call void @llvm.memcpy.p0.p0.i64(ptr align 4 %28, ptr align 4 %9, i64 8, i1 false), !tbaa.struct !54
  call void @llvm.memcpy.p0.p0.i64(ptr align 4 %29, ptr align 4 %10, i64 8, i1 false), !tbaa.struct !54
  %101 = load i32, ptr %14, align 4, !tbaa !16
  %102 = load i32, ptr %15, align 4, !tbaa !16
  %103 = load i32, ptr %16, align 4, !tbaa !16
  %104 = load i64, ptr %28, align 4
  %105 = load i64, ptr %29, align 4
  invoke void @_ZN2cv4lineERKNS_17_InputOutputArrayENS_6Point_IiEES4_RKNS_7Scalar_IdEEiii(ptr noundef nonnull align 8 dereferenceable(24) %27, i64 %104, i64 %105, ptr noundef nonnull align 8 dereferenceable(32) %3, i32 noundef %101, i32 noundef %102, i32 noundef %103)
          to label %106 unwind label %115

106:                                              ; preds = %78
  call void @_ZN2cv11_InputArrayD2Ev(ptr noundef nonnull align 8 dereferenceable(24) %27) #3
  call void @llvm.lifetime.end.p0(i64 24, ptr %27) #3
  call void @llvm.lifetime.end.p0(i64 8, ptr %23) #3
  call void @llvm.lifetime.end.p0(i64 8, ptr %22) #3
  ret void

107:                                              ; preds = %8
  %108 = landingpad { ptr, i32 }
          cleanup
  %109 = extractvalue { ptr, i32 } %108, 0
  store ptr %109, ptr %20, align 8
  %110 = extractvalue { ptr, i32 } %108, 1
  store i32 %110, ptr %21, align 4
  call void @_ZN2cv11_InputArrayD2Ev(ptr noundef nonnull align 8 dereferenceable(24) %17) #3
  call void @llvm.lifetime.end.p0(i64 24, ptr %17) #3
  br label %120

111:                                              ; preds = %35
  %112 = landingpad { ptr, i32 }
          cleanup
  %113 = extractvalue { ptr, i32 } %112, 0
  store ptr %113, ptr %20, align 8
  %114 = extractvalue { ptr, i32 } %112, 1
  store i32 %114, ptr %21, align 4
  call void @_ZN2cv11_InputArrayD2Ev(ptr noundef nonnull align 8 dereferenceable(24) %24) #3
  call void @llvm.lifetime.end.p0(i64 24, ptr %24) #3
  br label %119

115:                                              ; preds = %78
  %116 = landingpad { ptr, i32 }
          cleanup
  %117 = extractvalue { ptr, i32 } %116, 0
  store ptr %117, ptr %20, align 8
  %118 = extractvalue { ptr, i32 } %116, 1
  store i32 %118, ptr %21, align 4
  call void @_ZN2cv11_InputArrayD2Ev(ptr noundef nonnull align 8 dereferenceable(24) %27) #3
  call void @llvm.lifetime.end.p0(i64 24, ptr %27) #3
  br label %119

119:                                              ; preds = %115, %111
  call void @llvm.lifetime.end.p0(i64 8, ptr %23) #3
  call void @llvm.lifetime.end.p0(i64 8, ptr %22) #3
  br label %120

120:                                              ; preds = %119, %107
  %121 = load ptr, ptr %20, align 8
  %122 = load i32, ptr %21, align 4
  %123 = insertvalue { ptr, i32 } poison, ptr %121, 0
  %124 = insertvalue { ptr, i32 } %123, i32 %122, 1
  resume { ptr, i32 } %124
}