; Function Attrs: mustprogress uwtable
define hidden void @_Z9drawArrowN2cv3MatENS_6Point_IiEES2_NS_7Scalar_IdEEiiii(ptr noundef %0, i64 %1, i64 %2, ptr noundef nonnull %3, i32 noundef %4, i32 noundef %5, i32 noundef %6, i32 noundef %7) local_unnamed_addr #6 personality ptr @__gxx_personality_v0 {
  %9 = alloca %"class.cv::_InputOutputArray", align 8
  %10 = alloca %"class.cv::_InputOutputArray", align 8
  %11 = alloca %"class.cv::_InputOutputArray", align 8
  call void @llvm.lifetime.start.p0(i64 24, ptr nonnull %9) #25
  %12 = getelementptr inbounds nuw i8, ptr %9, i64 8
  %13 = getelementptr inbounds nuw i8, ptr %9, i64 16
  store i64 0, ptr %13, align 8
  store i32 50397184, ptr %9, align 8, !tbaa !30
  store ptr %0, ptr %12, align 8, !tbaa !34
  call void @_ZN2cv4lineERKNS_17_InputOutputArrayENS_6Point_IiEES4_RKNS_7Scalar_IdEEiii(ptr noundef nonnull align 8 dereferenceable(24) %9, i64 %1, i64 %2, ptr noundef nonnull align 8 dereferenceable(32) %3, i32 noundef %5, i32 noundef %6, i32 noundef %7)
  %.sroa.023.0.extract.trunc = trunc i64 %2 to i32
  %.sroa.7.0.extract.shift = lshr i64 %2, 32
  %.sroa.7.0.extract.trunc = trunc nuw i64 %.sroa.7.0.extract.shift to i32
  %.sroa.042.0.extract.trunc = trunc i64 %1 to i32
  %.sroa.749.0.extract.shift = lshr i64 %1, 32
  %.sroa.749.0.extract.trunc = trunc nuw i64 %.sroa.749.0.extract.shift to i32
  call void @llvm.lifetime.end.p0(i64 24, ptr nonnull %9) #25
  %14 = sitofp i32 %.sroa.749.0.extract.trunc to double
  %15 = sitofp i32 %.sroa.7.0.extract.trunc to double
  %16 = fsub double %14, %15
  %17 = sitofp i32 %.sroa.042.0.extract.trunc to double
  %18 = sitofp i32 %.sroa.023.0.extract.trunc to double
  %19 = fsub double %17, %18
  %20 = call double @atan2(double noundef %16, double noundef %19) #25, !tbaa !97
  %21 = sitofp i32 %4 to double
  %22 = fadd double %20, 0x3FE921FB54442D18
  %23 = call double @cos(double noundef %22) #25, !tbaa !97
  %24 = call double @llvm.fmuladd.f64(double %21, double %23, double %18)
  %25 = fptosi double %24 to i32
  %26 = call double @sin(double noundef %22) #25, !tbaa !97
  %27 = call double @llvm.fmuladd.f64(double %21, double %26, double %15)
  %28 = fptosi double %27 to i32
  call void @llvm.lifetime.start.p0(i64 24, ptr nonnull %10) #25
  %29 = getelementptr inbounds nuw i8, ptr %10, i64 8
  %30 = getelementptr inbounds nuw i8, ptr %10, i64 16
  store i64 0, ptr %30, align 8
  store i32 50397184, ptr %10, align 8, !tbaa !30
  store ptr %0, ptr %29, align 8, !tbaa !34
  %.sroa.749.0.insert.ext50 = zext i32 %28 to i64
  %.sroa.749.0.insert.shift51 = shl nuw i64 %.sroa.749.0.insert.ext50, 32
  %.sroa.042.0.insert.ext43 = zext i32 %25 to i64
  %.sroa.042.0.insert.insert45 = or disjoint i64 %.sroa.749.0.insert.shift51, %.sroa.042.0.insert.ext43
  call void @_ZN2cv4lineERKNS_17_InputOutputArrayENS_6Point_IiEES4_RKNS_7Scalar_IdEEiii(ptr noundef nonnull align 8 dereferenceable(24) %10, i64 %.sroa.042.0.insert.insert45, i64 %2, ptr noundef nonnull align 8 dereferenceable(32) %3, i32 noundef %5, i32 noundef %6, i32 noundef %7)
  call void @llvm.lifetime.end.p0(i64 24, ptr nonnull %10) #25
  %31 = fadd double %20, 0xBFE921FB54442D18
  %32 = call double @cos(double noundef %31) #25, !tbaa !97
  %33 = call double @llvm.fmuladd.f64(double %21, double %32, double %18)
  %34 = fptosi double %33 to i32
  %35 = call double @sin(double noundef %31) #25, !tbaa !97
  %36 = call double @llvm.fmuladd.f64(double %21, double %35, double %15)
  %37 = fptosi double %36 to i32
  call void @llvm.lifetime.start.p0(i64 24, ptr nonnull %11) #25
  %38 = getelementptr inbounds nuw i8, ptr %11, i64 8
  %39 = getelementptr inbounds nuw i8, ptr %11, i64 16
  store i64 0, ptr %39, align 8
  store i32 50397184, ptr %11, align 8, !tbaa !30
  store ptr %0, ptr %38, align 8, !tbaa !34
  %.sroa.749.0.insert.ext = zext i32 %37 to i64
  %.sroa.749.0.insert.shift = shl nuw i64 %.sroa.749.0.insert.ext, 32
  %.sroa.042.0.insert.ext = zext i32 %34 to i64
  %.sroa.042.0.insert.insert = or disjoint i64 %.sroa.749.0.insert.shift, %.sroa.042.0.insert.ext
  call void @_ZN2cv4lineERKNS_17_InputOutputArrayENS_6Point_IiEES4_RKNS_7Scalar_IdEEiii(ptr noundef nonnull align 8 dereferenceable(24) %11, i64 %.sroa.042.0.insert.insert, i64 %2, ptr noundef nonnull align 8 dereferenceable(32) %3, i32 noundef %5, i32 noundef %6, i32 noundef %7)
  call void @llvm.lifetime.end.p0(i64 24, ptr nonnull %11) #25
  ret void
}